; Function Attrs: cold nounwind optsize uwtable
define internal noundef i32 @dvbsub_close_decoder(ptr noundef readonly captures(none) %0) #0 {
  %2 = alloca ptr, align 8
  %3 = getelementptr inbounds nuw i8, ptr %0, i64 32
  %4 = load ptr, ptr %3, align 8, !tbaa !4
  call void @llvm.lifetime.start.p0(i64 8, ptr nonnull %2) #10
  tail call fastcc void @delete_regions(ptr noundef %4)
  tail call fastcc void @delete_objects(ptr noundef %4)
  tail call fastcc void @delete_cluts(ptr noundef %4)
  %5 = getelementptr inbounds nuw i8, ptr %4, i64 263248
  tail call void @av_freep(ptr noundef nonnull %5) #10
  %6 = getelementptr inbounds nuw i8, ptr %4, i64 263240
  %7 = load ptr, ptr %6, align 8, !tbaa !64
  %.not8 = icmp eq ptr %7, null
  br i1 %.not8, label %._crit_edge, label %.lr.ph

.lr.ph:                                           ; preds = %1, %.lr.ph
  %8 = phi ptr [ %11, %.lr.ph ], [ %7, %1 ]
  store ptr %8, ptr %2, align 8, !tbaa !65
  %9 = getelementptr inbounds nuw i8, ptr %8, i64 16
  %10 = load ptr, ptr %9, align 8, !tbaa !72
  store ptr %10, ptr %6, align 8, !tbaa !64
  call void @av_freep(ptr noundef nonnull %2) #10
  %11 = load ptr, ptr %6, align 8, !tbaa !64
  %.not = icmp eq ptr %11, null
  br i1 %.not, label %._crit_edge, label %.lr.ph, !llvm.loop !124

._crit_edge:                                      ; preds = %.lr.ph, %1
  call void @llvm.lifetime.end.p0(i64 8, ptr nonnull %2) #10
  ret i32 0
}